target datalayout = "e-m:e-p270:32:32-p271:32:32-p272:64:64-i64:64-i128:128-f80:128-n8:16:32:64-S128"
target triple = "x86_64-pc-linux-gnu"

%class.QPaintDevice.base = type <{ ptr, i16 }>
%class.QImage = type { %class.QPaintDevice.base, ptr }

; Function Attrs: mustprogress null_pointer_is_valid sspstrong uwtable
define void @_ZN13PacketDiagram21copyAsRasterTriggeredEv(ptr noundef align 8 dereferenceable_or_null(76) %0) #0 align 2 personality ptr @__gxx_personality_v0 {
  %2 = alloca ptr, align 8
  %3 = alloca %class.QImage, align 8
  %4 = alloca ptr, align 8
  %5 = alloca i32, align 4
  store ptr %0, ptr %2, align 8
  %6 = load ptr, ptr %2, align 8
  call void @llvm.lifetime.start.p0(i64 24, ptr %3) #22
  call void @_ZN13PacketDiagram13exportToImageEv(ptr dead_on_unwind writable sret(%class.QImage) align 8 %3, ptr noundef align 8 dereferenceable_or_null(76) %6)
  %7 = invoke noundef ptr @_ZN15QGuiApplication9clipboardEv()
          to label %8 unwind label %10

8:                                                ; preds = %1
  invoke void @_ZN10QClipboard8setImageERK6QImageNS_4ModeE(ptr noundef align 8 dereferenceable_or_null(16) %7, ptr noundef align 8 dereferenceable(24) %3, i32 noundef 0)
          to label %9 unwind label %10

9:                                                ; preds = %8
  call void @_ZN6QImageD1Ev(ptr noundef align 8 dereferenceable_or_null(24) %3) #22
  call void @llvm.lifetime.end.p0(i64 24, ptr %3) #22
  ret void

10:                                               ; preds = %8, %1
  %11 = landingpad { ptr, i32 }
          cleanup
  %12 = extractvalue { ptr, i32 } %11, 0
  store ptr %12, ptr %4, align 8
  %13 = extractvalue { ptr, i32 } %11, 1
  store i32 %13, ptr %5, align 4
  call void @_ZN6QImageD1Ev(ptr noundef align 8 dereferenceable_or_null(24) %3) #22
  call void @llvm.lifetime.end.p0(i64 24, ptr %3) #22
  br label %14

14:                                               ; preds = %10
  %15 = load ptr, ptr %4, align 8
  %16 = load i32, ptr %5, align 4
  %17 = insertvalue { ptr, i32 } poison, ptr %15, 0
  %18 = insertvalue { ptr, i32 } %17, i32 %16, 1
  resume { ptr, i32 } %18
}