; Function Attrs: mustprogress null_pointer_is_valid sspstrong uwtable
define void @_ZN13PacketDiagram21copyAsRasterTriggeredEv(ptr noundef align 8 dereferenceable_or_null(76) %0) #0 align 2 personality ptr @__gxx_personality_v0 {
  %2 = alloca %class.QImage, align 8
  call void @llvm.lifetime.start.p0(i64 24, ptr nonnull %2) #21
  call void @_ZN13PacketDiagram13exportToImageEv(ptr dead_on_unwind nonnull writable sret(%class.QImage) align 8 %2, ptr noundef align 8 dereferenceable_or_null(76) %0)
  %3 = invoke noundef ptr @_ZN15QGuiApplication9clipboardEv()
          to label %4 unwind label %6

4:                                                ; preds = %1
  invoke void @_ZN10QClipboard8setImageERK6QImageNS_4ModeE(ptr noundef align 8 dereferenceable_or_null(16) %3, ptr noundef nonnull align 8 dereferenceable(24) %2, i32 noundef 0)
          to label %5 unwind label %6

5:                                                ; preds = %4
  call void @_ZN6QImageD1Ev(ptr noundef nonnull align 8 dereferenceable_or_null(24) %2) #21
  call void @llvm.lifetime.end.p0(i64 24, ptr nonnull %2) #21
  ret void

6:                                                ; preds = %4, %1
  %7 = landingpad { ptr, i32 }
          cleanup
  call void @_ZN6QImageD1Ev(ptr noundef nonnull align 8 dereferenceable_or_null(24) %2) #21
  call void @llvm.lifetime.end.p0(i64 24, ptr nonnull %2) #21
  resume { ptr, i32 } %7
}